target datalayout = "e-m:e-p270:32:32-p271:32:32-p272:64:64-i64:64-i128:128-f80:128-n8:16:32:64-S128"
target triple = "x86_64-pc-linux-gnu"

%union.pthread_mutex_t = type { %struct.__pthread_mutex_s }
%struct.__pthread_mutex_s = type { i32, i32, i32, i32, i32, i16, i16, %struct.__pthread_internal_list }
%struct.__pthread_internal_list = type { ptr, ptr }
%struct.wolfSSL_RefWithMutex = type { %union.pthread_mutex_t, i32 }
%struct.WOLFSSL_CERT_MANAGER = type { [11 x ptr], ptr, ptr, ptr, ptr, ptr, ptr, ptr, ptr, ptr, ptr, ptr, ptr, %union.pthread_mutex_t, i8, i16, i16, %struct.wolfSSL_RefWithMutex }
%struct.Signer = type { i32, i32, i16, i8, i8, ptr, i32, ptr, ptr, ptr, [20 x i8], [20 x i8], i8, ptr }

; Function Attrs: inlinehint nounwind uwtable
define internal i32 @MakeWordFromHash(ptr noundef %0) #4 {
  %2 = alloca ptr, align 8
  store ptr %0, ptr %2, align 8, !tbaa !21
  %3 = load ptr, ptr %2, align 8, !tbaa !21
  %4 = getelementptr inbounds i8, ptr %3, i64 0
  %5 = load i8, ptr %4, align 1, !tbaa !20
  %6 = zext i8 %5 to i32
  %7 = shl i32 %6, 24
  %8 = load ptr, ptr %2, align 8, !tbaa !21
  %9 = getelementptr inbounds i8, ptr %8, i64 1
  %10 = load i8, ptr %9, align 1, !tbaa !20
  %11 = zext i8 %10 to i32
  %12 = shl i32 %11, 16
  %13 = or i32 %7, %12
  %14 = load ptr, ptr %2, align 8, !tbaa !21
  %15 = getelementptr inbounds i8, ptr %14, i64 2
  %16 = load i8, ptr %15, align 1, !tbaa !20
  %17 = zext i8 %16 to i32
  %18 = shl i32 %17, 8
  %19 = or i32 %13, %18
  %20 = load ptr, ptr %2, align 8, !tbaa !21
  %21 = getelementptr inbounds i8, ptr %20, i64 3
  %22 = load i8, ptr %21, align 1, !tbaa !20
  %23 = zext i8 %22 to i32
  %24 = or i32 %19, %23
  ret i32 %24
}

; Function Attrs: inlinehint nounwind uwtable
define internal i32 @HashSigner(ptr noundef %0) #4 {
  %2 = alloca ptr, align 8
  store ptr %0, ptr %2, align 8, !tbaa !21
  %3 = load ptr, ptr %2, align 8, !tbaa !21
  %4 = call i32 @MakeWordFromHash(ptr noundef %3)
  %5 = urem i32 %4, 11
  ret i32 %5
}

; Function Attrs: nounwind uwtable
define i32 @AlreadySigner(ptr noundef %0, ptr noundef %1) #0 {
  %3 = alloca i32, align 4
  %4 = alloca ptr, align 8
  %5 = alloca ptr, align 8
  %6 = alloca ptr, align 8
  %7 = alloca i32, align 4
  %8 = alloca i32, align 4
  %9 = alloca i32, align 4
  %10 = alloca ptr, align 8
  store ptr %0, ptr %4, align 8, !tbaa !9
  store ptr %1, ptr %5, align 8, !tbaa !21
  call void @llvm.lifetime.start.p0(i64 8, ptr %6) #9
  call void @llvm.lifetime.start.p0(i64 4, ptr %7) #9
  store i32 0, ptr %7, align 4, !tbaa !7
  call void @llvm.lifetime.start.p0(i64 4, ptr %8) #9
  %11 = load ptr, ptr %4, align 8, !tbaa !9
  %12 = icmp eq ptr %11, null
  br i1 %12, label %16, label %13

13:                                               ; preds = %2
  %14 = load ptr, ptr %5, align 8, !tbaa !21
  %15 = icmp eq ptr %14, null
  br i1 %15, label %16, label %18

16:                                               ; preds = %13, %2
  %17 = load i32, ptr %7, align 4, !tbaa !7
  store i32 %17, ptr %3, align 4
  store i32 1, ptr %9, align 4
  br label %58

18:                                               ; preds = %13
  %19 = load ptr, ptr %5, align 8, !tbaa !21
  %20 = call i32 @HashSigner(ptr noundef %19)
  store i32 %20, ptr %8, align 4, !tbaa !7
  %21 = load ptr, ptr %4, align 8, !tbaa !9
  %22 = getelementptr inbounds nuw %struct.WOLFSSL_CERT_MANAGER, ptr %21, i32 0, i32 13
  %23 = call i32 @wc_LockMutex(ptr noundef %22)
  %24 = icmp ne i32 %23, 0
  br i1 %24, label %25, label %27

25:                                               ; preds = %18
  %26 = load i32, ptr %7, align 4, !tbaa !7
  store i32 %26, ptr %3, align 4
  store i32 1, ptr %9, align 4
  br label %58

27:                                               ; preds = %18
  %28 = load ptr, ptr %4, align 8, !tbaa !9
  %29 = getelementptr inbounds nuw %struct.WOLFSSL_CERT_MANAGER, ptr %28, i32 0, i32 0
  %30 = load i32, ptr %8, align 4, !tbaa !7
  %31 = zext i32 %30 to i64
  %32 = getelementptr inbounds nuw [11 x ptr], ptr %29, i64 0, i64 %31
  %33 = load ptr, ptr %32, align 8, !tbaa !201
  store ptr %33, ptr %6, align 8, !tbaa !201
  br label %34

34:                                               ; preds = %52, %27
  %35 = load ptr, ptr %6, align 8, !tbaa !201
  %36 = icmp ne ptr %35, null
  br i1 %36, label %37, label %53

37:                                               ; preds = %34
  call void @llvm.lifetime.start.p0(i64 8, ptr %10) #9
  %38 = load ptr, ptr %6, align 8, !tbaa !201
  %39 = getelementptr inbounds nuw %struct.Signer, ptr %38, i32 0, i32 11
  %40 = getelementptr inbounds [20 x i8], ptr %39, i64 0, i64 0
  store ptr %40, ptr %10, align 8, !tbaa !21
  %41 = load ptr, ptr %5, align 8, !tbaa !21
  %42 = load ptr, ptr %10, align 8, !tbaa !21
  %43 = call i32 @memcmp(ptr noundef %41, ptr noundef %42, i64 noundef 20) #10
  %44 = icmp eq i32 %43, 0
  br i1 %44, label %45, label %46

45:                                               ; preds = %37
  store i32 1, ptr %7, align 4, !tbaa !7
  store i32 3, ptr %9, align 4
  br label %50

46:                                               ; preds = %37
  %47 = load ptr, ptr %6, align 8, !tbaa !201
  %48 = getelementptr inbounds nuw %struct.Signer, ptr %47, i32 0, i32 13
  %49 = load ptr, ptr %48, align 8, !tbaa !203
  store ptr %49, ptr %6, align 8, !tbaa !201
  store i32 0, ptr %9, align 4
  br label %50

50:                                               ; preds = %46, %45
  call void @llvm.lifetime.end.p0(i64 8, ptr %10) #9
  %51 = load i32, ptr %9, align 4
  switch i32 %51, label %60 [
    i32 0, label %52
    i32 3, label %53
  ]

52:                                               ; preds = %50
  br label %34, !llvm.loop !206

53:                                               ; preds = %50, %34
  %54 = load ptr, ptr %4, align 8, !tbaa !9
  %55 = getelementptr inbounds nuw %struct.WOLFSSL_CERT_MANAGER, ptr %54, i32 0, i32 13
  %56 = call i32 @wc_UnLockMutex(ptr noundef %55)
  %57 = load i32, ptr %7, align 4, !tbaa !7
  store i32 %57, ptr %3, align 4
  store i32 1, ptr %9, align 4
  br label %58

58:                                               ; preds = %53, %25, %16
  call void @llvm.lifetime.end.p0(i64 4, ptr %8) #9
  call void @llvm.lifetime.end.p0(i64 4, ptr %7) #9
  call void @llvm.lifetime.end.p0(i64 8, ptr %6) #9
  %59 = load i32, ptr %3, align 4
  ret i32 %59

60:                                               ; preds = %50
  unreachable
}