; Function Attrs: nounwind uwtable
define range(i32 0, 2) i32 @AlreadySigner(ptr noundef %0, ptr noundef readonly captures(address_is_null) %1) local_unnamed_addr #0 {
  %3 = icmp eq ptr %0, null
  %4 = icmp eq ptr %1, null
  %or.cond = or i1 %3, %4
  br i1 %or.cond, label %34, label %5

5:                                                ; preds = %2
  %6 = load i8, ptr %1, align 1, !tbaa !43
  %7 = getelementptr inbounds nuw i8, ptr %1, i64 1
  %8 = load i8, ptr %7, align 1, !tbaa !43
  %9 = getelementptr inbounds nuw i8, ptr %1, i64 2
  %10 = load i8, ptr %9, align 1, !tbaa !43
  %11 = getelementptr inbounds nuw i8, ptr %1, i64 3
  %12 = load i8, ptr %11, align 1, !tbaa !43
  %13 = getelementptr inbounds nuw i8, ptr %0, i64 184
  %14 = tail call i32 @wc_LockMutex(ptr noundef nonnull %13) #22
  %.not = icmp eq i32 %14, 0
  br i1 %.not, label %15, label %34

15:                                               ; preds = %5
  %16 = zext i8 %8 to i32
  %17 = shl nuw nsw i32 %16, 16
  %18 = zext i8 %6 to i32
  %19 = shl nuw i32 %18, 24
  %20 = or disjoint i32 %17, %19
  %21 = zext i8 %10 to i32
  %22 = shl nuw nsw i32 %21, 8
  %23 = or disjoint i32 %20, %22
  %24 = zext i8 %12 to i32
  %25 = or disjoint i32 %23, %24
  %26 = urem i32 %25, 11
  %27 = zext nneg i32 %26 to i64
  %28 = getelementptr inbounds nuw [11 x ptr], ptr %0, i64 0, i64 %27
  %.01828 = load ptr, ptr %28, align 8, !tbaa !177
  %.not2329 = icmp eq ptr %.01828, null
  br i1 %.not2329, label %.thread, label %.lr.ph

29:                                               ; preds = %.lr.ph
  %30 = getelementptr inbounds nuw i8, ptr %.01830, i64 104
  %.018 = load ptr, ptr %30, align 8, !tbaa !177
  %.not23 = icmp eq ptr %.018, null
  br i1 %.not23, label %.thread, label %.lr.ph

.lr.ph:                                           ; preds = %15, %29
  %.01830 = phi ptr [ %.018, %29 ], [ %.01828, %15 ]
  %31 = getelementptr inbounds nuw i8, ptr %.01830, i64 76
  %bcmp = tail call i32 @bcmp(ptr noundef nonnull dereferenceable(20) %1, ptr noundef nonnull dereferenceable(20) %31, i64 20)
  %32 = icmp eq i32 %bcmp, 0
  br i1 %32, label %.thread, label %29

.thread:                                          ; preds = %29, %.lr.ph, %15
  %.120 = phi i32 [ 0, %15 ], [ 1, %.lr.ph ], [ 0, %29 ]
  %33 = tail call i32 @wc_UnLockMutex(ptr noundef nonnull %13) #22
  br label %34

34:                                               ; preds = %5, %2, %.thread
  %.0 = phi i32 [ %.120, %.thread ], [ 0, %2 ], [ 0, %5 ]
  ret i32 %.0
}